(lp1
(dp2
S'state'
p3
ccopy_reg
_reconstructor
p4
(csuds.sax.text
Text
p5
c__builtin__
unicode
p6
VAlabama
tRp7
(dp8
S'lang'
p9
NsS'escaped'
p10
I00
sbsS'id'
p11
L21133L
sa(dp12
g3
g4
(g5
g6
VAlaska
tRp13
(dp14
g9
Nsg10
I00
sbsg11
L21132L
sa(dp15
g3
g4
(g5
g6
VArizona
tRp16
(dp17
g9
Nsg10
I00
sbsg11
L21136L
sa(dp18
g3
g4
(g5
g6
VArkansas
tRp19
(dp20
g9
Nsg10
I00
sbsg11
L21135L
sa(dp21
g3
g4
(g5
g6
VCalifornia
tRp22
(dp23
g9
Nsg10
I00
sbsg11
L21137L
sa(dp24
g3
g4
(g5
g6
VColorado
tRp25
(dp26
g9
Nsg10
I00
sbsg11
L21138L
sa(dp27
g3
g4
(g5
g6
VConnecticut
tRp28
(dp29
g9
Nsg10
I00
sbsg11
L21139L
sa(dp30
g3
g4
(g5
g6
VDelaware
tRp31
(dp32
g9
Nsg10
I00
sbsg11
L21141L
sa(dp33
g3
g4
(g5
g6
VFlorida
tRp34
(dp35
g9
Nsg10
I00
sbsg11
L21142L
sa(dp36
g3
g4
(g5
g6
VGeorgia
tRp37
(dp38
g9
Nsg10
I00
sbsg11
L21143L
sa(dp39
g3
g4
(g5
g6
VHawaii
tRp40
(dp41
g9
Nsg10
I00
sbsg11
L21144L
sa(dp42
g3
g4
(g5
g6
VIdaho
tRp43
(dp44
g9
Nsg10
I00
sbsg11
L21146L
sa(dp45
g3
g4
(g5
g6
VIllinois
tRp46
(dp47
g9
Nsg10
I00
sbsg11
L21147L
sa(dp48
g3
g4
(g5
g6
VIndiana
tRp49
(dp50
g9
Nsg10
I00
sbsg11
L21148L
sa(dp51
g3
g4
(g5
g6
VIowa
tRp52
(dp53
g9
Nsg10
I00
sbsg11
L21145L
sa(dp54
g3
g4
(g5
g6
VKansas
tRp55
(dp56
g9
Nsg10
I00
sbsg11
L21149L
sa(dp57
g3
g4
(g5
g6
VKentucky
tRp58
(dp59
g9
Nsg10
I00
sbsg11
L21150L
sa(dp60
g3
g4
(g5
g6
VLouisiana
tRp61
(dp62
g9
Nsg10
I00
sbsg11
L21151L
sa(dp63
g3
g4
(g5
g6
VMaine
tRp64
(dp65
g9
Nsg10
I00
sbsg11
L21154L
sa(dp66
g3
g4
(g5
g6
VMaryland
tRp67
(dp68
g9
Nsg10
I00
sbsg11
L21153L
sa(dp69
g3
g4
(g5
g6
VMassachusetts
tRp70
(dp71
g9
Nsg10
I00
sbsg11
L21152L
sa(dp72
g3
g4
(g5
g6
VMichigan
tRp73
(dp74
g9
Nsg10
I00
sbsg11
L21155L
sa(dp75
g3
g4
(g5
g6
VMinnesota
tRp76
(dp77
g9
Nsg10
I00
sbsg11
L21156L
sa(dp78
g3
g4
(g5
g6
VMississippi
tRp79
(dp80
g9
Nsg10
I00
sbsg11
L21158L
sa(dp81
g3
g4
(g5
g6
VMissouri
tRp82
(dp83
g9
Nsg10
I00
sbsg11
L21157L
sa.