(lp1
(dp2
S'state'
p3
ccopy_reg
_reconstructor
p4
(csuds.sax.text
Text
p5
c__builtin__
unicode
p6
VMontana
tRp7
(dp8
S'lang'
p9
NsS'escaped'
p10
I00
sbsS'id'
p11
L21159L
sa(dp12
g3
g4
(g5
g6
VNebraska
tRp13
(dp14
g9
Nsg10
I00
sbsg11
L21162L
sa(dp15
g3
g4
(g5
g6
VNevada
tRp16
(dp17
g9
Nsg10
I00
sbsg11
L21166L
sa(dp18
g3
g4
(g5
g6
VNew Hampshire
tRp19
(dp20
g9
Nsg10
I00
sbsg11
L21163L
sa(dp21
g3
g4
(g5
g6
VNew Jersey
tRp22
(dp23
g9
Nsg10
I00
sbsg11
L21164L
sa(dp24
g3
g4
(g5
g6
VNew Mexico
tRp25
(dp26
g9
Nsg10
I00
sbsg11
L21165L
sa(dp27
g3
g4
(g5
g6
VNew York
tRp28
(dp29
g9
Nsg10
I00
sbsg11
L21167L
sa(dp30
g3
g4
(g5
g6
VNorth Carolina
tRp31
(dp32
g9
Nsg10
I00
sbsg11
L21160L
sa(dp33
g3
g4
(g5
g6
VNorth Dakota
tRp34
(dp35
g9
Nsg10
I00
sbsg11
L21161L
sa(dp36
g3
g4
(g5
g6
VOhio
tRp37
(dp38
g9
Nsg10
I00
sbsg11
L21168L
sa(dp39
g3
g4
(g5
g6
VOklahoma
tRp40
(dp41
g9
Nsg10
I00
sbsg11
L21169L
sa(dp42
g3
g4
(g5
g6
VOregon
tRp43
(dp44
g9
Nsg10
I00
sbsg11
L21170L
sa(dp45
g3
g4
(g5
g6
VPennsylvania
tRp46
(dp47
g9
Nsg10
I00
sbsg11
L21171L
sa(dp48
g3
g4
(g5
g6
VRhode Island
tRp49
(dp50
g9
Nsg10
I00
sbsg11
L21172L
sa(dp51
g3
g4
(g5
g6
VSouth Carolina
tRp52
(dp53
g9
Nsg10
I00
sbsg11
L21173L
sa(dp54
g3
g4
(g5
g6
VSouth Dakota
tRp55
(dp56
g9
Nsg10
I00
sbsg11
L21174L
sa(dp57
g3
g4
(g5
g6
VTennessee
tRp58
(dp59
g9
Nsg10
I00
sbsg11
L21175L
sa(dp60
g3
g4
(g5
g6
VTexas
tRp61
(dp62
g9
Nsg10
I00
sbsg11
L21176L
sa(dp63
g3
g4
(g5
g6
VUtah
tRp64
(dp65
g9
Nsg10
I00
sbsg11
L21177L
sa(dp66
g3
g4
(g5
g6
VVermont
tRp67
(dp68
g9
Nsg10
I00
sbsg11
L21179L
sa(dp69
g3
g4
(g5
g6
VVirginia
tRp70
(dp71
g9
Nsg10
I00
sbsg11
L21178L
sa(dp72
g3
g4
(g5
g6
VWashington
tRp73
(dp74
g9
Nsg10
I00
sbsg11
L21180L
sa(dp75
g3
g4
(g5
g6
VWest Virginia
tRp76
(dp77
g9
Nsg10
I00
sbsg11
L21183L
sa(dp78
g3
g4
(g5
g6
VWisconsin
tRp79
(dp80
g9
Nsg10
I00
sbsg11
L21182L
sa(dp81
g3
g4
(g5
g6
VWyoming
tRp82
(dp83
g9
Nsg10
I00
sbsg11
L21184L
sa.